target datalayout = "e-m:e-p270:32:32-p271:32:32-p272:64:64-i64:64-i128:128-f80:128-n8:16:32:64-S128"
target triple = "x86_64-pc-linux-gnu"

%struct._gpa_hfinfo_t = type { i32, i32, ptr }
%struct._header_field_info = type { ptr, ptr, i32, i32, ptr, i64, ptr, i32, i32, i32, i32, ptr }
%struct._protocol = type { ptr, ptr, ptr, ptr, i32, i8, i8, i8, i32, ptr }
%struct._GPtrArray = type { ptr, i32 }

@gpa_hfinfo = internal global %struct._gpa_hfinfo_t zeroinitializer, align 8
@gpa_name_map = internal global ptr null, align 8
@deregistered_fields = internal global ptr null, align 8
@last_field_name = internal global ptr null, align 8

; Function Attrs: null_pointer_is_valid sspstrong uwtable
define void @proto_deregister_field(i32 noundef %0, i32 noundef %1) #0 {
  %3 = alloca i32, align 4
  %4 = alloca i32, align 4
  %5 = alloca ptr, align 8
  %6 = alloca ptr, align 8
  %7 = alloca i32, align 4
  %8 = alloca i32, align 4
  store i32 %0, ptr %3, align 4
  store i32 %1, ptr %4, align 4
  call void @llvm.lifetime.start.p0(i64 8, ptr %5) #24
  call void @llvm.lifetime.start.p0(i64 8, ptr %6) #24
  call void @llvm.lifetime.start.p0(i64 4, ptr %7) #24
  %9 = load ptr, ptr @last_field_name, align 8
  call void @g_free(ptr noundef %9)
  store ptr null, ptr @last_field_name, align 8
  %10 = load i32, ptr %4, align 4
  %11 = icmp eq i32 %10, -1
  br i1 %11, label %15, label %12

12:                                               ; preds = %2
  %13 = load i32, ptr %4, align 4
  %14 = icmp eq i32 %13, 0
  br i1 %14, label %15, label %16

15:                                               ; preds = %12, %2
  store i32 1, ptr %8, align 4
  br label %73

16:                                               ; preds = %12
  %17 = load i32, ptr %3, align 4
  %18 = call ptr @find_protocol_by_id(i32 noundef %17)
  store ptr %18, ptr %6, align 8
  %19 = load ptr, ptr %6, align 8
  %20 = icmp ne ptr %19, null
  br i1 %20, label %21, label %26

21:                                               ; preds = %16
  %22 = load ptr, ptr %6, align 8
  %23 = getelementptr inbounds nuw %struct._protocol, ptr %22, i32 0, i32 3
  %24 = load ptr, ptr %23, align 8
  %25 = icmp eq ptr %24, null
  br i1 %25, label %26, label %27

26:                                               ; preds = %21, %16
  store i32 1, ptr %8, align 4
  br label %73

27:                                               ; preds = %21
  store i32 0, ptr %7, align 4
  br label %28

28:                                               ; preds = %69, %27
  %29 = load i32, ptr %7, align 4
  %30 = load ptr, ptr %6, align 8
  %31 = getelementptr inbounds nuw %struct._protocol, ptr %30, i32 0, i32 3
  %32 = load ptr, ptr %31, align 8
  %33 = getelementptr inbounds nuw %struct._GPtrArray, ptr %32, i32 0, i32 1
  %34 = load i32, ptr %33, align 8
  %35 = icmp ult i32 %29, %34
  br i1 %35, label %36, label %72

36:                                               ; preds = %28
  %37 = load ptr, ptr %6, align 8
  %38 = getelementptr inbounds nuw %struct._protocol, ptr %37, i32 0, i32 3
  %39 = load ptr, ptr %38, align 8
  %40 = getelementptr inbounds nuw %struct._GPtrArray, ptr %39, i32 0, i32 0
  %41 = load ptr, ptr %40, align 8
  %42 = load i32, ptr %7, align 4
  %43 = zext i32 %42 to i64
  %44 = getelementptr ptr, ptr %41, i64 %43
  %45 = load ptr, ptr %44, align 8
  store ptr %45, ptr %5, align 8
  %46 = load ptr, ptr %5, align 8
  %47 = getelementptr inbounds nuw %struct._header_field_info, ptr %46, i32 0, i32 7
  %48 = load i32, ptr %47, align 8
  %49 = load i32, ptr %4, align 4
  %50 = icmp eq i32 %48, %49
  br i1 %50, label %51, label %68

51:                                               ; preds = %36
  %52 = load ptr, ptr @gpa_name_map, align 8
  %53 = load ptr, ptr %5, align 8
  %54 = getelementptr inbounds nuw %struct._header_field_info, ptr %53, i32 0, i32 1
  %55 = load ptr, ptr %54, align 8
  %56 = call i32 @g_hash_table_steal(ptr noundef %52, ptr noundef %55)
  %57 = load ptr, ptr %6, align 8
  %58 = getelementptr inbounds nuw %struct._protocol, ptr %57, i32 0, i32 3
  %59 = load ptr, ptr %58, align 8
  %60 = load i32, ptr %7, align 4
  %61 = call ptr @g_ptr_array_remove_index_fast(ptr noundef %59, i32 noundef %60)
  %62 = load ptr, ptr @deregistered_fields, align 8
  %63 = load ptr, ptr getelementptr inbounds nuw (%struct._gpa_hfinfo_t, ptr @gpa_hfinfo, i32 0, i32 2), align 8
  %64 = load i32, ptr %4, align 4
  %65 = sext i32 %64 to i64
  %66 = getelementptr ptr, ptr %63, i64 %65
  %67 = load ptr, ptr %66, align 8
  call void @g_ptr_array_add(ptr noundef %62, ptr noundef %67)
  store i32 1, ptr %8, align 4
  br label %73

68:                                               ; preds = %36
  br label %69

69:                                               ; preds = %68
  %70 = load i32, ptr %7, align 4
  %71 = add i32 %70, 1
  store i32 %71, ptr %7, align 4
  br label %28, !llvm.loop !43

72:                                               ; preds = %28
  store i32 0, ptr %8, align 4
  br label %73

73:                                               ; preds = %72, %51, %26, %15
  call void @llvm.lifetime.end.p0(i64 4, ptr %7) #24
  call void @llvm.lifetime.end.p0(i64 8, ptr %6) #24
  call void @llvm.lifetime.end.p0(i64 8, ptr %5) #24
  %74 = load i32, ptr %8, align 4
  switch i32 %74, label %76 [
    i32 0, label %75
    i32 1, label %75
  ]

75:                                               ; preds = %73, %73
  ret void

76:                                               ; preds = %73
  unreachable
}