; Function Attrs: null_pointer_is_valid sspstrong uwtable
define void @proto_deregister_field(i32 noundef %0, i32 noundef %1) local_unnamed_addr #0 {
  %3 = load ptr, ptr @last_field_name, align 8
  tail call void @g_free(ptr noundef %3)
  store ptr null, ptr @last_field_name, align 8
  %4 = add i32 %1, 1
  %or.cond = icmp ult i32 %4, 2
  br i1 %or.cond, label %.loopexit, label %5

5:                                                ; preds = %2
  %6 = tail call ptr @find_protocol_by_id(i32 noundef %0)
  %.not = icmp eq ptr %6, null
  br i1 %.not, label %.loopexit, label %7

7:                                                ; preds = %5
  %8 = getelementptr inbounds nuw i8, ptr %6, i64 24
  %9 = load ptr, ptr %8, align 8
  %10 = icmp eq ptr %9, null
  br i1 %10, label %.loopexit, label %.preheader

.preheader:                                       ; preds = %7
  %11 = getelementptr inbounds nuw i8, ptr %9, i64 8
  %12 = load i32, ptr %11, align 8
  %.not20 = icmp eq i32 %12, 0
  br i1 %.not20, label %.loopexit, label %.lr.ph

.lr.ph:                                           ; preds = %.preheader
  %13 = load ptr, ptr %9, align 8
  %wide.trip.count = zext i32 %12 to i64
  br label %14

14:                                               ; preds = %.lr.ph, %33
  %indvars.iv = phi i64 [ 0, %.lr.ph ], [ %indvars.iv.next, %33 ]
  %15 = getelementptr ptr, ptr %13, i64 %indvars.iv
  %16 = load ptr, ptr %15, align 8
  %17 = getelementptr inbounds nuw i8, ptr %16, i64 48
  %18 = load i32, ptr %17, align 8
  %19 = icmp eq i32 %18, %1
  br i1 %19, label %20, label %33

20:                                               ; preds = %14
  %21 = trunc nuw i64 %indvars.iv to i32
  %22 = load ptr, ptr @gpa_name_map, align 8
  %23 = getelementptr inbounds nuw i8, ptr %16, i64 8
  %24 = load ptr, ptr %23, align 8
  %25 = tail call i32 @g_hash_table_steal(ptr noundef %22, ptr noundef %24)
  %26 = load ptr, ptr %8, align 8
  %27 = tail call ptr @g_ptr_array_remove_index_fast(ptr noundef %26, i32 noundef %21)
  %28 = load ptr, ptr @deregistered_fields, align 8
  %29 = load ptr, ptr @gpa_hfinfo.2, align 8
  %30 = sext i32 %1 to i64
  %31 = getelementptr ptr, ptr %29, i64 %30
  %32 = load ptr, ptr %31, align 8
  tail call void @g_ptr_array_add(ptr noundef %28, ptr noundef %32)
  br label %.loopexit

33:                                               ; preds = %14
  %indvars.iv.next = add nuw nsw i64 %indvars.iv, 1
  %exitcond.not = icmp eq i64 %indvars.iv.next, %wide.trip.count
  br i1 %exitcond.not, label %.loopexit, label %14, !llvm.loop !50

.loopexit:                                        ; preds = %33, %.preheader, %5, %7, %2, %20
  ret void
}